target datalayout = "e-m:e-p270:32:32-p271:32:32-p272:64:64-i64:64-i128:128-f80:128-n8:16:32:64-S128"
target triple = "x86_64-unknown-linux-gnu"

@_ZTIN8QuantLib14AcyclicVisitorE = linkonce_odr constant { ptr, ptr } { ptr getelementptr inbounds (ptr, ptr @_ZTVN10__cxxabiv117__class_type_infoE, i64 2), ptr @_ZTSN8QuantLib14AcyclicVisitorE }, comdat, align 8
@_ZTIN8QuantLib7VisitorINS_32OvernightIborBasisSwapRateHelperEEE = linkonce_odr constant { ptr, ptr } { ptr getelementptr inbounds (ptr, ptr @_ZTVN10__cxxabiv117__class_type_infoE, i64 2), ptr @_ZTSN8QuantLib7VisitorINS_32OvernightIborBasisSwapRateHelperEEE }, comdat, align 8

; Function Attrs: mustprogress uwtable
define void @_ZN8QuantLib32OvernightIborBasisSwapRateHelper6acceptERNS_14AcyclicVisitorE(ptr noundef nonnull align 8 dereferenceable(304) %this, ptr noundef nonnull align 8 dereferenceable(8) %v) unnamed_addr #2 align 2 {
entry:
  %this.addr = alloca ptr, align 8
  %v.addr = alloca ptr, align 8
  %v1 = alloca ptr, align 8
  store ptr %this, ptr %this.addr, align 8, !tbaa !3
  store ptr %v, ptr %v.addr, align 8, !tbaa !3
  %this1 = load ptr, ptr %this.addr, align 8
  call void @llvm.lifetime.start.p0(i64 8, ptr %v1) #13
  %0 = load ptr, ptr %v.addr, align 8, !tbaa !3
  %1 = icmp eq ptr %0, null
  br i1 %1, label %dynamic_cast.null, label %dynamic_cast.notnull

dynamic_cast.notnull:                             ; preds = %entry
  %2 = call ptr @__dynamic_cast(ptr %0, ptr @_ZTIN8QuantLib14AcyclicVisitorE, ptr @_ZTIN8QuantLib7VisitorINS_32OvernightIborBasisSwapRateHelperEEE, i64 -2) #13
  br label %dynamic_cast.end

dynamic_cast.null:                                ; preds = %entry
  br label %dynamic_cast.end

dynamic_cast.end:                                 ; preds = %dynamic_cast.null, %dynamic_cast.notnull
  %3 = phi ptr [ %2, %dynamic_cast.notnull ], [ null, %dynamic_cast.null ]
  store ptr %3, ptr %v1, align 8, !tbaa !3
  %4 = load ptr, ptr %v1, align 8, !tbaa !3
  %cmp = icmp ne ptr %4, null
  br i1 %cmp, label %if.then, label %if.else

if.then:                                          ; preds = %dynamic_cast.end
  %5 = load ptr, ptr %v1, align 8, !tbaa !3
  %vtable = load ptr, ptr %5, align 8, !tbaa !12
  %vfn = getelementptr inbounds ptr, ptr %vtable, i64 2
  %6 = load ptr, ptr %vfn, align 8
  call void %6(ptr noundef nonnull align 8 dereferenceable(8) %5, ptr noundef nonnull align 8 dereferenceable(304) %this1)
  br label %if.end

if.else:                                          ; preds = %dynamic_cast.end
  %7 = load ptr, ptr %v.addr, align 8, !tbaa !3
  call void @_ZN8QuantLib15BootstrapHelperINS_18YieldTermStructureEE6acceptERNS_14AcyclicVisitorE(ptr noundef nonnull align 8 dereferenceable(176) %this1, ptr noundef nonnull align 8 dereferenceable(8) %7)
  br label %if.end

if.end:                                           ; preds = %if.else, %if.then
  call void @llvm.lifetime.end.p0(i64 8, ptr %v1) #13
  ret void
}